target datalayout = "e-m:e-p270:32:32-p271:32:32-p272:64:64-i64:64-i128:128-f80:128-n8:16:32:64-S128"
target triple = "x86_64-pc-linux-gnu"

%struct.TokenAuxData = type { %union.YYSTYPE, i32, i32 }
%union.YYSTYPE = type { %struct.PLwdatum }
%struct.PLwdatum = type { ptr, ptr, i8, ptr }
%struct.yyguts_t = type { ptr }
%struct.plpgsql_yy_extra_type = type { %struct.core_yy_extra_type, ptr, i32, i32, i32, [4 x i32], [4 x %struct.TokenAuxData], ptr, ptr, i32 }
%struct.core_yy_extra_type = type { ptr, i64, ptr, ptr, i32, i8, i8, ptr, i32, i32, i32, i32, ptr, i32, i32, i8, i8 }

; Function Attrs: nounwind uwtable
define hidden void @plpgsql_append_source_text(ptr noundef %0, i32 noundef %1, i32 noundef %2, ptr noundef %3) #0 {
  %5 = alloca ptr, align 8
  %6 = alloca i32, align 4
  %7 = alloca i32, align 4
  %8 = alloca ptr, align 8
  store ptr %0, ptr %5, align 8
  store i32 %1, ptr %6, align 4
  store i32 %2, ptr %7, align 4
  store ptr %3, ptr %8, align 8
  %9 = load ptr, ptr %5, align 8
  %10 = load ptr, ptr %8, align 8
  %11 = getelementptr inbounds nuw %struct.yyguts_t, ptr %10, i32 0, i32 0
  %12 = load ptr, ptr %11, align 8
  %13 = getelementptr inbounds nuw %struct.plpgsql_yy_extra_type, ptr %12, i32 0, i32 1
  %14 = load ptr, ptr %13, align 8
  %15 = load i32, ptr %6, align 4
  %16 = sext i32 %15 to i64
  %17 = getelementptr inbounds i8, ptr %14, i64 %16
  %18 = load i32, ptr %7, align 4
  %19 = load i32, ptr %6, align 4
  %20 = sub i32 %18, %19
  call void @appendBinaryStringInfo(ptr noundef %9, ptr noundef %17, i32 noundef %20)
  ret void
}