; Function Attrs: nounwind uwtable
define hidden void @plpgsql_append_source_text(ptr noundef %0, i32 noundef %1, i32 noundef %2, ptr noundef readonly captures(none) %3) local_unnamed_addr #0 {
  %5 = load ptr, ptr %3, align 8
  %6 = getelementptr inbounds nuw i8, ptr %5, i64 88
  %7 = load ptr, ptr %6, align 8
  %8 = sext i32 %1 to i64
  %9 = getelementptr inbounds i8, ptr %7, i64 %8
  %10 = sub i32 %2, %1
  tail call void @appendBinaryStringInfo(ptr noundef %0, ptr noundef %9, i32 noundef %10) #12
  ret void
}